target datalayout = "e-m:e-p270:32:32-p271:32:32-p272:64:64-i64:64-i128:128-f80:128-n8:16:32:64-S128"
target triple = "x86_64-pc-linux-gnu"

%struct.curltime = type { i64, i32 }
%struct.Curl_tree = type { ptr, ptr, ptr, ptr, %struct.curltime, ptr }

; Function Attrs: nounwind uwtable
define dso_local ptr @Curl_splay(i64 %0, i32 %1, ptr noundef %2) #0 {
  %4 = alloca ptr, align 8
  %5 = alloca %struct.curltime, align 8
  %6 = alloca ptr, align 8
  %7 = alloca %struct.Curl_tree, align 8
  %8 = alloca ptr, align 8
  %9 = alloca ptr, align 8
  %10 = alloca ptr, align 8
  %11 = alloca i64, align 8
  %12 = getelementptr inbounds { i64, i32 }, ptr %5, i32 0, i32 0
  store i64 %0, ptr %12, align 8
  %13 = getelementptr inbounds { i64, i32 }, ptr %5, i32 0, i32 1
  store i32 %1, ptr %13, align 8
  store ptr %2, ptr %6, align 8
  %14 = load ptr, ptr %6, align 8
  %15 = icmp ne ptr %14, null
  br i1 %15, label %18, label %16

16:                                               ; preds = %3
  %17 = load ptr, ptr %6, align 8
  store ptr %17, ptr %4, align 8
  br label %260

18:                                               ; preds = %3
  %19 = getelementptr inbounds %struct.Curl_tree, ptr %7, i32 0, i32 1
  store ptr null, ptr %19, align 8
  %20 = getelementptr inbounds %struct.Curl_tree, ptr %7, i32 0, i32 0
  store ptr null, ptr %20, align 8
  store ptr %7, ptr %9, align 8
  store ptr %7, ptr %8, align 8
  br label %21

21:                                               ; preds = %239, %18
  %22 = getelementptr inbounds %struct.curltime, ptr %5, i32 0, i32 0
  %23 = load i64, ptr %22, align 8
  %24 = load ptr, ptr %6, align 8
  %25 = getelementptr inbounds %struct.Curl_tree, ptr %24, i32 0, i32 4
  %26 = getelementptr inbounds %struct.curltime, ptr %25, i32 0, i32 0
  %27 = load i64, ptr %26, align 8
  %28 = icmp slt i64 %23, %27
  br i1 %28, label %29, label %30

29:                                               ; preds = %21
  br label %61

30:                                               ; preds = %21
  %31 = getelementptr inbounds %struct.curltime, ptr %5, i32 0, i32 0
  %32 = load i64, ptr %31, align 8
  %33 = load ptr, ptr %6, align 8
  %34 = getelementptr inbounds %struct.Curl_tree, ptr %33, i32 0, i32 4
  %35 = getelementptr inbounds %struct.curltime, ptr %34, i32 0, i32 0
  %36 = load i64, ptr %35, align 8
  %37 = icmp sgt i64 %32, %36
  br i1 %37, label %38, label %39

38:                                               ; preds = %30
  br label %59

39:                                               ; preds = %30
  %40 = getelementptr inbounds %struct.curltime, ptr %5, i32 0, i32 1
  %41 = load i32, ptr %40, align 8
  %42 = load ptr, ptr %6, align 8
  %43 = getelementptr inbounds %struct.Curl_tree, ptr %42, i32 0, i32 4
  %44 = getelementptr inbounds %struct.curltime, ptr %43, i32 0, i32 1
  %45 = load i32, ptr %44, align 8
  %46 = icmp slt i32 %41, %45
  br i1 %46, label %47, label %48

47:                                               ; preds = %39
  br label %57

48:                                               ; preds = %39
  %49 = getelementptr inbounds %struct.curltime, ptr %5, i32 0, i32 1
  %50 = load i32, ptr %49, align 8
  %51 = load ptr, ptr %6, align 8
  %52 = getelementptr inbounds %struct.Curl_tree, ptr %51, i32 0, i32 4
  %53 = getelementptr inbounds %struct.curltime, ptr %52, i32 0, i32 1
  %54 = load i32, ptr %53, align 8
  %55 = icmp sgt i32 %50, %54
  %56 = select i1 %55, i32 1, i32 0
  br label %57

57:                                               ; preds = %48, %47
  %58 = phi i32 [ -1, %47 ], [ %56, %48 ]
  br label %59

59:                                               ; preds = %57, %38
  %60 = phi i32 [ 1, %38 ], [ %58, %57 ]
  br label %61

61:                                               ; preds = %59, %29
  %62 = phi i32 [ -1, %29 ], [ %60, %59 ]
  %63 = sext i32 %62 to i64
  store i64 %63, ptr %11, align 8
  %64 = load i64, ptr %11, align 8
  %65 = icmp slt i64 %64, 0
  br i1 %65, label %66, label %150

66:                                               ; preds = %61
  %67 = load ptr, ptr %6, align 8
  %68 = getelementptr inbounds %struct.Curl_tree, ptr %67, i32 0, i32 0
  %69 = load ptr, ptr %68, align 8
  %70 = icmp ne ptr %69, null
  br i1 %70, label %72, label %71

71:                                               ; preds = %66
  br label %240

72:                                               ; preds = %66
  %73 = getelementptr inbounds %struct.curltime, ptr %5, i32 0, i32 0
  %74 = load i64, ptr %73, align 8
  %75 = load ptr, ptr %6, align 8
  %76 = getelementptr inbounds %struct.Curl_tree, ptr %75, i32 0, i32 0
  %77 = load ptr, ptr %76, align 8
  %78 = getelementptr inbounds %struct.Curl_tree, ptr %77, i32 0, i32 4
  %79 = getelementptr inbounds %struct.curltime, ptr %78, i32 0, i32 0
  %80 = load i64, ptr %79, align 8
  %81 = icmp slt i64 %74, %80
  br i1 %81, label %82, label %83

82:                                               ; preds = %72
  br label %120

83:                                               ; preds = %72
  %84 = getelementptr inbounds %struct.curltime, ptr %5, i32 0, i32 0
  %85 = load i64, ptr %84, align 8
  %86 = load ptr, ptr %6, align 8
  %87 = getelementptr inbounds %struct.Curl_tree, ptr %86, i32 0, i32 0
  %88 = load ptr, ptr %87, align 8
  %89 = getelementptr inbounds %struct.Curl_tree, ptr %88, i32 0, i32 4
  %90 = getelementptr inbounds %struct.curltime, ptr %89, i32 0, i32 0
  %91 = load i64, ptr %90, align 8
  %92 = icmp sgt i64 %85, %91
  br i1 %92, label %93, label %94

93:                                               ; preds = %83
  br label %118

94:                                               ; preds = %83
  %95 = getelementptr inbounds %struct.curltime, ptr %5, i32 0, i32 1
  %96 = load i32, ptr %95, align 8
  %97 = load ptr, ptr %6, align 8
  %98 = getelementptr inbounds %struct.Curl_tree, ptr %97, i32 0, i32 0
  %99 = load ptr, ptr %98, align 8
  %100 = getelementptr inbounds %struct.Curl_tree, ptr %99, i32 0, i32 4
  %101 = getelementptr inbounds %struct.curltime, ptr %100, i32 0, i32 1
  %102 = load i32, ptr %101, align 8
  %103 = icmp slt i32 %96, %102
  br i1 %103, label %104, label %105

104:                                              ; preds = %94
  br label %116

105:                                              ; preds = %94
  %106 = getelementptr inbounds %struct.curltime, ptr %5, i32 0, i32 1
  %107 = load i32, ptr %106, align 8
  %108 = load ptr, ptr %6, align 8
  %109 = getelementptr inbounds %struct.Curl_tree, ptr %108, i32 0, i32 0
  %110 = load ptr, ptr %109, align 8
  %111 = getelementptr inbounds %struct.Curl_tree, ptr %110, i32 0, i32 4
  %112 = getelementptr inbounds %struct.curltime, ptr %111, i32 0, i32 1
  %113 = load i32, ptr %112, align 8
  %114 = icmp sgt i32 %107, %113
  %115 = select i1 %114, i32 1, i32 0
  br label %116

116:                                              ; preds = %105, %104
  %117 = phi i32 [ -1, %104 ], [ %115, %105 ]
  br label %118

118:                                              ; preds = %116, %93
  %119 = phi i32 [ 1, %93 ], [ %117, %116 ]
  br label %120

120:                                              ; preds = %118, %82
  %121 = phi i32 [ -1, %82 ], [ %119, %118 ]
  %122 = icmp slt i32 %121, 0
  br i1 %122, label %123, label %142

123:                                              ; preds = %120
  %124 = load ptr, ptr %6, align 8
  %125 = getelementptr inbounds %struct.Curl_tree, ptr %124, i32 0, i32 0
  %126 = load ptr, ptr %125, align 8
  store ptr %126, ptr %10, align 8
  %127 = load ptr, ptr %10, align 8
  %128 = getelementptr inbounds %struct.Curl_tree, ptr %127, i32 0, i32 1
  %129 = load ptr, ptr %128, align 8
  %130 = load ptr, ptr %6, align 8
  %131 = getelementptr inbounds %struct.Curl_tree, ptr %130, i32 0, i32 0
  store ptr %129, ptr %131, align 8
  %132 = load ptr, ptr %6, align 8
  %133 = load ptr, ptr %10, align 8
  %134 = getelementptr inbounds %struct.Curl_tree, ptr %133, i32 0, i32 1
  store ptr %132, ptr %134, align 8
  %135 = load ptr, ptr %10, align 8
  store ptr %135, ptr %6, align 8
  %136 = load ptr, ptr %6, align 8
  %137 = getelementptr inbounds %struct.Curl_tree, ptr %136, i32 0, i32 0
  %138 = load ptr, ptr %137, align 8
  %139 = icmp ne ptr %138, null
  br i1 %139, label %141, label %140

140:                                              ; preds = %123
  br label %240

141:                                              ; preds = %123
  br label %142

142:                                              ; preds = %141, %120
  %143 = load ptr, ptr %6, align 8
  %144 = load ptr, ptr %9, align 8
  %145 = getelementptr inbounds %struct.Curl_tree, ptr %144, i32 0, i32 0
  store ptr %143, ptr %145, align 8
  %146 = load ptr, ptr %6, align 8
  store ptr %146, ptr %9, align 8
  %147 = load ptr, ptr %6, align 8
  %148 = getelementptr inbounds %struct.Curl_tree, ptr %147, i32 0, i32 0
  %149 = load ptr, ptr %148, align 8
  store ptr %149, ptr %6, align 8
  br label %239

150:                                              ; preds = %61
  %151 = load i64, ptr %11, align 8
  %152 = icmp sgt i64 %151, 0
  br i1 %152, label %153, label %237

153:                                              ; preds = %150
  %154 = load ptr, ptr %6, align 8
  %155 = getelementptr inbounds %struct.Curl_tree, ptr %154, i32 0, i32 1
  %156 = load ptr, ptr %155, align 8
  %157 = icmp ne ptr %156, null
  br i1 %157, label %159, label %158

158:                                              ; preds = %153
  br label %240

159:                                              ; preds = %153
  %160 = getelementptr inbounds %struct.curltime, ptr %5, i32 0, i32 0
  %161 = load i64, ptr %160, align 8
  %162 = load ptr, ptr %6, align 8
  %163 = getelementptr inbounds %struct.Curl_tree, ptr %162, i32 0, i32 1
  %164 = load ptr, ptr %163, align 8
  %165 = getelementptr inbounds %struct.Curl_tree, ptr %164, i32 0, i32 4
  %166 = getelementptr inbounds %struct.curltime, ptr %165, i32 0, i32 0
  %167 = load i64, ptr %166, align 8
  %168 = icmp slt i64 %161, %167
  br i1 %168, label %169, label %170

169:                                              ; preds = %159
  br label %207

170:                                              ; preds = %159
  %171 = getelementptr inbounds %struct.curltime, ptr %5, i32 0, i32 0
  %172 = load i64, ptr %171, align 8
  %173 = load ptr, ptr %6, align 8
  %174 = getelementptr inbounds %struct.Curl_tree, ptr %173, i32 0, i32 1
  %175 = load ptr, ptr %174, align 8
  %176 = getelementptr inbounds %struct.Curl_tree, ptr %175, i32 0, i32 4
  %177 = getelementptr inbounds %struct.curltime, ptr %176, i32 0, i32 0
  %178 = load i64, ptr %177, align 8
  %179 = icmp sgt i64 %172, %178
  br i1 %179, label %180, label %181

180:                                              ; preds = %170
  br label %205

181:                                              ; preds = %170
  %182 = getelementptr inbounds %struct.curltime, ptr %5, i32 0, i32 1
  %183 = load i32, ptr %182, align 8
  %184 = load ptr, ptr %6, align 8
  %185 = getelementptr inbounds %struct.Curl_tree, ptr %184, i32 0, i32 1
  %186 = load ptr, ptr %185, align 8
  %187 = getelementptr inbounds %struct.Curl_tree, ptr %186, i32 0, i32 4
  %188 = getelementptr inbounds %struct.curltime, ptr %187, i32 0, i32 1
  %189 = load i32, ptr %188, align 8
  %190 = icmp slt i32 %183, %189
  br i1 %190, label %191, label %192

191:                                              ; preds = %181
  br label %203

192:                                              ; preds = %181
  %193 = getelementptr inbounds %struct.curltime, ptr %5, i32 0, i32 1
  %194 = load i32, ptr %193, align 8
  %195 = load ptr, ptr %6, align 8
  %196 = getelementptr inbounds %struct.Curl_tree, ptr %195, i32 0, i32 1
  %197 = load ptr, ptr %196, align 8
  %198 = getelementptr inbounds %struct.Curl_tree, ptr %197, i32 0, i32 4
  %199 = getelementptr inbounds %struct.curltime, ptr %198, i32 0, i32 1
  %200 = load i32, ptr %199, align 8
  %201 = icmp sgt i32 %194, %200
  %202 = select i1 %201, i32 1, i32 0
  br label %203

203:                                              ; preds = %192, %191
  %204 = phi i32 [ -1, %191 ], [ %202, %192 ]
  br label %205

205:                                              ; preds = %203, %180
  %206 = phi i32 [ 1, %180 ], [ %204, %203 ]
  br label %207

207:                                              ; preds = %205, %169
  %208 = phi i32 [ -1, %169 ], [ %206, %205 ]
  %209 = icmp sgt i32 %208, 0
  br i1 %209, label %210, label %229

210:                                              ; preds = %207
  %211 = load ptr, ptr %6, align 8
  %212 = getelementptr inbounds %struct.Curl_tree, ptr %211, i32 0, i32 1
  %213 = load ptr, ptr %212, align 8
  store ptr %213, ptr %10, align 8
  %214 = load ptr, ptr %10, align 8
  %215 = getelementptr inbounds %struct.Curl_tree, ptr %214, i32 0, i32 0
  %216 = load ptr, ptr %215, align 8
  %217 = load ptr, ptr %6, align 8
  %218 = getelementptr inbounds %struct.Curl_tree, ptr %217, i32 0, i32 1
  store ptr %216, ptr %218, align 8
  %219 = load ptr, ptr %6, align 8
  %220 = load ptr, ptr %10, align 8
  %221 = getelementptr inbounds %struct.Curl_tree, ptr %220, i32 0, i32 0
  store ptr %219, ptr %221, align 8
  %222 = load ptr, ptr %10, align 8
  store ptr %222, ptr %6, align 8
  %223 = load ptr, ptr %6, align 8
  %224 = getelementptr inbounds %struct.Curl_tree, ptr %223, i32 0, i32 1
  %225 = load ptr, ptr %224, align 8
  %226 = icmp ne ptr %225, null
  br i1 %226, label %228, label %227

227:                                              ; preds = %210
  br label %240

228:                                              ; preds = %210
  br label %229

229:                                              ; preds = %228, %207
  %230 = load ptr, ptr %6, align 8
  %231 = load ptr, ptr %8, align 8
  %232 = getelementptr inbounds %struct.Curl_tree, ptr %231, i32 0, i32 1
  store ptr %230, ptr %232, align 8
  %233 = load ptr, ptr %6, align 8
  store ptr %233, ptr %8, align 8
  %234 = load ptr, ptr %6, align 8
  %235 = getelementptr inbounds %struct.Curl_tree, ptr %234, i32 0, i32 1
  %236 = load ptr, ptr %235, align 8
  store ptr %236, ptr %6, align 8
  br label %238

237:                                              ; preds = %150
  br label %240

238:                                              ; preds = %229
  br label %239

239:                                              ; preds = %238, %142
  br label %21

240:                                              ; preds = %237, %227, %158, %140, %71
  %241 = load ptr, ptr %6, align 8
  %242 = getelementptr inbounds %struct.Curl_tree, ptr %241, i32 0, i32 0
  %243 = load ptr, ptr %242, align 8
  %244 = load ptr, ptr %8, align 8
  %245 = getelementptr inbounds %struct.Curl_tree, ptr %244, i32 0, i32 1
  store ptr %243, ptr %245, align 8
  %246 = load ptr, ptr %6, align 8
  %247 = getelementptr inbounds %struct.Curl_tree, ptr %246, i32 0, i32 1
  %248 = load ptr, ptr %247, align 8
  %249 = load ptr, ptr %9, align 8
  %250 = getelementptr inbounds %struct.Curl_tree, ptr %249, i32 0, i32 0
  store ptr %248, ptr %250, align 8
  %251 = getelementptr inbounds %struct.Curl_tree, ptr %7, i32 0, i32 1
  %252 = load ptr, ptr %251, align 8
  %253 = load ptr, ptr %6, align 8
  %254 = getelementptr inbounds %struct.Curl_tree, ptr %253, i32 0, i32 0
  store ptr %252, ptr %254, align 8
  %255 = getelementptr inbounds %struct.Curl_tree, ptr %7, i32 0, i32 0
  %256 = load ptr, ptr %255, align 8
  %257 = load ptr, ptr %6, align 8
  %258 = getelementptr inbounds %struct.Curl_tree, ptr %257, i32 0, i32 1
  store ptr %256, ptr %258, align 8
  %259 = load ptr, ptr %6, align 8
  store ptr %259, ptr %4, align 8
  br label %260

260:                                              ; preds = %240, %16
  %261 = load ptr, ptr %4, align 8
  ret ptr %261
}