; Function Attrs: nofree norecurse nosync nounwind memory(readwrite, inaccessiblemem: none) uwtable
define dso_local noundef ptr @Curl_splay(i64 %0, i32 %1, ptr noundef %2) local_unnamed_addr #0 {
  %4 = alloca %struct.Curl_tree, align 8
  %.not = icmp eq ptr %2, null
  br i1 %.not, label %58, label %5

5:                                                ; preds = %3
  %6 = getelementptr inbounds nuw i8, ptr %4, i64 8
  call void @llvm.memset.p0.i64(ptr noundef nonnull align 8 dereferenceable(16) %4, i8 0, i64 16, i1 false)
  br label %7

7:                                                ; preds = %50, %5
  %.060 = phi ptr [ %2, %5 ], [ %.3, %50 ]
  %.058 = phi ptr [ %4, %5 ], [ %.159, %50 ]
  %.057 = phi ptr [ %4, %5 ], [ %.1, %50 ]
  %8 = getelementptr inbounds nuw i8, ptr %.060, i64 32
  %9 = load i64, ptr %8, align 8
  %10 = icmp slt i64 %0, %9
  br i1 %10, label %17, label %11

11:                                               ; preds = %7
  %12 = icmp sgt i64 %0, %9
  br i1 %12, label %.thread91, label %13

13:                                               ; preds = %11
  %14 = getelementptr inbounds nuw i8, ptr %.060, i64 40
  %15 = load i32, ptr %14, align 8
  %16 = icmp slt i32 %1, %15
  br i1 %16, label %17, label %32

17:                                               ; preds = %7, %13
  %18 = load ptr, ptr %.060, align 8
  %.not82 = icmp eq ptr %18, null
  br i1 %.not82, label %51, label %19

19:                                               ; preds = %17
  %20 = getelementptr inbounds nuw i8, ptr %18, i64 32
  %21 = load i64, ptr %20, align 8
  %22 = icmp slt i64 %0, %21
  br i1 %22, label %.critedge, label %23

23:                                               ; preds = %19
  %24 = icmp sgt i64 %0, %21
  br i1 %24, label %.critedge85, label %25

25:                                               ; preds = %23
  %26 = getelementptr inbounds nuw i8, ptr %18, i64 40
  %27 = load i32, ptr %26, align 8
  %28 = icmp slt i32 %1, %27
  br i1 %28, label %.critedge, label %.critedge85

.critedge:                                        ; preds = %19, %25
  %29 = getelementptr inbounds nuw i8, ptr %18, i64 8
  %30 = load ptr, ptr %29, align 8
  store ptr %30, ptr %.060, align 8
  store ptr %.060, ptr %29, align 8
  %31 = load ptr, ptr %18, align 8
  %.not83 = icmp eq ptr %31, null
  br i1 %.not83, label %51, label %.critedge85

.critedge85:                                      ; preds = %23, %.critedge, %25
  %.2 = phi ptr [ %18, %.critedge ], [ %.060, %25 ], [ %.060, %23 ]
  store ptr %.2, ptr %.057, align 8
  br label %50

32:                                               ; preds = %13
  %.not93 = icmp sgt i32 %1, %15
  br i1 %.not93, label %.thread91, label %51

.thread91:                                        ; preds = %11, %32
  %33 = getelementptr inbounds nuw i8, ptr %.060, i64 8
  %34 = load ptr, ptr %33, align 8
  %.not80 = icmp eq ptr %34, null
  br i1 %.not80, label %51, label %35

35:                                               ; preds = %.thread91
  %36 = getelementptr inbounds nuw i8, ptr %34, i64 32
  %37 = load i64, ptr %36, align 8
  %38 = icmp slt i64 %0, %37
  br i1 %38, label %.critedge88, label %39

39:                                               ; preds = %35
  %40 = icmp sgt i64 %0, %37
  br i1 %40, label %.critedge90, label %41

41:                                               ; preds = %39
  %42 = getelementptr inbounds nuw i8, ptr %34, i64 40
  %43 = load i32, ptr %42, align 8
  %44 = icmp sgt i32 %1, %43
  br i1 %44, label %.critedge90, label %.critedge88

.critedge90:                                      ; preds = %39, %41
  %45 = load ptr, ptr %34, align 8
  store ptr %45, ptr %33, align 8
  store ptr %.060, ptr %34, align 8
  %46 = getelementptr inbounds nuw i8, ptr %34, i64 8
  %47 = load ptr, ptr %46, align 8
  %.not81 = icmp eq ptr %47, null
  br i1 %.not81, label %51, label %.critedge88

.critedge88:                                      ; preds = %35, %.critedge90, %41
  %.4 = phi ptr [ %34, %.critedge90 ], [ %.060, %41 ], [ %.060, %35 ]
  %48 = getelementptr inbounds nuw i8, ptr %.058, i64 8
  store ptr %.4, ptr %48, align 8
  %49 = getelementptr inbounds nuw i8, ptr %.4, i64 8
  br label %50

50:                                               ; preds = %.critedge88, %.critedge85
  %.3.in = phi ptr [ %.2, %.critedge85 ], [ %49, %.critedge88 ]
  %.159 = phi ptr [ %.058, %.critedge85 ], [ %.4, %.critedge88 ]
  %.1 = phi ptr [ %.2, %.critedge85 ], [ %.057, %.critedge88 ]
  %.3 = load ptr, ptr %.3.in, align 8
  br label %7

51:                                               ; preds = %32, %.critedge90, %.thread91, %.critedge, %17
  %.161 = phi ptr [ %18, %.critedge ], [ %.060, %17 ], [ %34, %.critedge90 ], [ %.060, %.thread91 ], [ %.060, %32 ]
  %52 = load ptr, ptr %.161, align 8
  %53 = getelementptr inbounds nuw i8, ptr %.058, i64 8
  store ptr %52, ptr %53, align 8
  %54 = getelementptr inbounds nuw i8, ptr %.161, i64 8
  %55 = load ptr, ptr %54, align 8
  store ptr %55, ptr %.057, align 8
  %56 = load ptr, ptr %6, align 8
  store ptr %56, ptr %.161, align 8
  %57 = load ptr, ptr %4, align 8
  store ptr %57, ptr %54, align 8
  br label %58

58:                                               ; preds = %3, %51
  %.0 = phi ptr [ %.161, %51 ], [ null, %3 ]
  ret ptr %.0
}